; Function Attrs: nounwind sspstrong uwtable
define internal i64 @d_lite_eql_p(i64 noundef %0, i64 noundef %1) #0 {
  %3 = load i64, ptr @cDate, align 8, !tbaa !6
  %4 = tail call i64 @rb_obj_is_kind_of(i64 noundef %1, i64 noundef %3) #21
  %.not = icmp eq i64 %4, 0
  br i1 %.not, label %f_zero_p.exit, label %5

5:                                                ; preds = %2
  %6 = tail call i64 @d_lite_cmp(i64 noundef %0, i64 noundef %1)
  %7 = icmp eq i64 %6, 0
  %8 = and i64 %6, 7
  %9 = icmp ne i64 %8, 0
  %10 = or i1 %7, %9
  br i1 %10, label %11, label %rb_type.exit.i

11:                                               ; preds = %5
  %12 = tail call i64 @llvm.fshl.i64(i64 %6, i64 %6, i64 62)
  switch i64 %12, label %13 [
    i64 0, label %rb_type.exit.thread.i
    i64 1, label %rb_type.exit.thread.i
    i64 5, label %rb_type.exit.thread.i
    i64 9, label %rb_type.exit.thread.i
  ]

13:                                               ; preds = %11
  %14 = and i64 %6, 1
  %.not.i.i = icmp eq i64 %14, 0
  br i1 %.not.i.i, label %rb_type.exit.thread.i, label %rb_type.exit.thread8.i

rb_type.exit.i:                                   ; preds = %5
  %15 = inttoptr i64 %6 to ptr
  %16 = load i64, ptr %15, align 8, !tbaa !35
  %17 = trunc i64 %16 to i32
  %18 = and i32 %17, 31
  switch i32 %18, label %rb_type.exit.thread.i [
    i32 21, label %rb_type.exit.thread8.i
    i32 10, label %f_zero_p.exit
    i32 15, label %21
  ]

rb_type.exit.thread8.i:                           ; preds = %rb_type.exit.i, %13
  %19 = icmp ult i64 %6, 2
  %20 = select i1 %19, i64 20, i64 0
  br label %f_zero_p.exit

21:                                               ; preds = %rb_type.exit.i
  %22 = tail call i64 @rb_rational_num(i64 noundef %6) #24
  %23 = and i64 %22, 1
  %.not.i = icmp eq i64 %23, 0
  br i1 %.not.i, label %f_zero_p.exit, label %24

24:                                               ; preds = %21
  %25 = icmp ult i64 %22, 2
  %26 = select i1 %25, i64 20, i64 0
  br label %f_zero_p.exit

rb_type.exit.thread.i:                            ; preds = %rb_type.exit.i, %13, %11, %11, %11, %11
  %27 = load i64, ptr @id_eqeq_p, align 8, !tbaa !6
  %28 = tail call i64 (i64, i64, i32, ...) @rb_funcall(i64 noundef %6, i64 noundef %27, i32 noundef 1, i64 noundef 1) #21
  br label %f_zero_p.exit

f_zero_p.exit:                                    ; preds = %rb_type.exit.thread.i, %24, %21, %rb_type.exit.thread8.i, %rb_type.exit.i, %2
  %.0 = phi i64 [ 0, %2 ], [ %28, %rb_type.exit.thread.i ], [ %20, %rb_type.exit.thread8.i ], [ 0, %rb_type.exit.i ], [ 0, %21 ], [ %26, %24 ]
  ret i64 %.0
}